target datalayout = "e-m:e-p270:32:32-p271:32:32-p272:64:64-i64:64-i128:128-f80:128-n8:16:32:64-S128"
target triple = "x86_64-pc-linux-gnu"

%struct.H5G_fh_ud_rmbi_t = type { ptr, ptr }

@.str = private unnamed_addr constant [102 x i8] c"generated/home/dtcxzyw/WorkSpace/Projects/compilers/llvm-opt-benchmark/bench/hdf5/hdf5/src/H5Gdense.c\00", align 1
@H5E_SYM_g = external global i64, align 8
@H5E_CANTDECODE_g = external global i64, align 8
@.str.42 = private unnamed_addr constant [18 x i8] c"can't decode link\00", align 1
@__func__.H5G__dense_remove_by_idx_fh_cb = private unnamed_addr constant [31 x i8] c"H5G__dense_remove_by_idx_fh_cb\00", align 1

; Function Attrs: nounwind uwtable
define internal i32 @H5G__dense_remove_by_idx_fh_cb(ptr noundef %0, i64 noundef %1, ptr noundef %2) #0 {
  %4 = alloca ptr, align 8
  %5 = alloca i64, align 8
  %6 = alloca ptr, align 8
  %7 = alloca ptr, align 8
  %8 = alloca i32, align 4
  %9 = alloca i8, align 1
  store ptr %0, ptr %4, align 8
  store i64 %1, ptr %5, align 8
  store ptr %2, ptr %6, align 8
  %10 = load ptr, ptr %6, align 8
  store ptr %10, ptr %7, align 8
  store i32 0, ptr %8, align 4
  store i8 0, ptr %9, align 1
  %11 = load ptr, ptr %7, align 8
  %12 = getelementptr inbounds %struct.H5G_fh_ud_rmbi_t, ptr %11, i32 0, i32 0
  %13 = load ptr, ptr %12, align 8
  %14 = load i64, ptr %5, align 8
  %15 = load ptr, ptr %4, align 8
  %16 = call ptr @H5O_msg_decode(ptr noundef %13, ptr noundef null, i32 noundef 6, i64 noundef %14, ptr noundef %15)
  %17 = load ptr, ptr %7, align 8
  %18 = getelementptr inbounds %struct.H5G_fh_ud_rmbi_t, ptr %17, i32 0, i32 1
  store ptr %16, ptr %18, align 8
  %19 = icmp eq ptr null, %16
  br i1 %19, label %20, label %35

20:                                               ; preds = %3
  br label %21

21:                                               ; preds = %20
  br label %22

22:                                               ; preds = %21
  br label %23

23:                                               ; preds = %22
  %24 = load i64, ptr @H5E_SYM_g, align 8
  %25 = load i64, ptr @H5E_CANTDECODE_g, align 8
  %26 = call i32 (ptr, ptr, i32, i64, i64, ptr, ...) @H5E_printf_stack(ptr noundef @.str, ptr noundef @__func__.H5G__dense_remove_by_idx_fh_cb, i32 noundef 1351, i64 noundef %24, i64 noundef %25, ptr noundef @.str.42)
  br label %27

27:                                               ; preds = %23
  store i8 1, ptr %9, align 1
  %28 = load i8, ptr %9, align 1
  %29 = trunc i8 %28 to i1
  %30 = zext i1 %29 to i8
  store i8 %30, ptr %9, align 1
  br label %31

31:                                               ; preds = %27
  br label %32

32:                                               ; preds = %31
  store i32 -1, ptr %8, align 4
  br label %36

33:                                               ; No predecessors!
  br label %34

34:                                               ; preds = %33
  br label %35

35:                                               ; preds = %34, %3
  br label %36

36:                                               ; preds = %35, %32
  %37 = load i32, ptr %8, align 4
  ret i32 %37
}