; Function Attrs: nounwind uwtable
define internal range(i32 -1, 1) i32 @H5G__dense_remove_by_idx_fh_cb(ptr noundef %0, i64 noundef %1, ptr nocapture noundef %2) #0 {
  %4 = load ptr, ptr %2, align 8
  %5 = tail call ptr @H5O_msg_decode(ptr noundef %4, ptr noundef null, i32 noundef 6, i64 noundef %1, ptr noundef %0) #8
  %6 = getelementptr inbounds i8, ptr %2, i64 8
  store ptr %5, ptr %6, align 8
  %7 = icmp eq ptr %5, null
  br i1 %7, label %8, label %12

8:                                                ; preds = %3
  %9 = load i64, ptr @H5E_SYM_g, align 8
  %10 = load i64, ptr @H5E_CANTDECODE_g, align 8
  %11 = tail call i32 (ptr, ptr, i32, i64, i64, ptr, ...) @H5E_printf_stack(ptr noundef nonnull @.str, ptr noundef nonnull @__func__.H5G__dense_remove_by_idx_fh_cb, i32 noundef 1351, i64 noundef %9, i64 noundef %10, ptr noundef nonnull @.str.42) #8
  br label %12

12:                                               ; preds = %3, %8
  %.0 = phi i32 [ -1, %8 ], [ 0, %3 ]
  ret i32 %.0
}